target datalayout = "e-m:e-p270:32:32-p271:32:32-p272:64:64-i64:64-i128:128-f80:128-n8:16:32:64-S128"
target triple = "x86_64-pc-linux-gnu"

@.str.1 = private unnamed_addr constant [6 x i8] c"EMERG\00", align 1
@.str.2 = private unnamed_addr constant [6 x i8] c"ALERT\00", align 1
@.str.3 = private unnamed_addr constant [5 x i8] c"CRIT\00", align 1
@.str.6 = private unnamed_addr constant [5 x i8] c"NOTE\00", align 1
@.str.8 = private unnamed_addr constant [6 x i8] c"DEBUG\00", align 1
@.str.14 = private unnamed_addr constant [5 x i8] c"CMP \00", align 1
@.str.15 = private unnamed_addr constant [6 x i8] c"ERROR\00", align 1
@.str.16 = private unnamed_addr constant [5 x i8] c"WARN\00", align 1
@.str.17 = private unnamed_addr constant [5 x i8] c"INFO\00", align 1

; Function Attrs: nounwind uwtable
define internal i32 @parse_level(ptr noundef %0) #0 {
  %2 = alloca i32, align 4
  %3 = alloca ptr, align 8
  %4 = alloca ptr, align 8
  %5 = alloca i32, align 4
  %6 = alloca [6 x i8], align 1
  %7 = alloca i32, align 4
  store ptr %0, ptr %3, align 8, !tbaa !3
  call void @llvm.lifetime.start.p0(i64 8, ptr %4) #7
  %8 = load ptr, ptr %3, align 8, !tbaa !3
  %9 = call ptr @strchr(ptr noundef %8, i32 noundef 58) #8
  store ptr %9, ptr %4, align 8, !tbaa !3
  call void @llvm.lifetime.start.p0(i64 4, ptr %5) #7
  call void @llvm.lifetime.start.p0(i64 6, ptr %6) #7
  %10 = load ptr, ptr %4, align 8, !tbaa !3
  %11 = icmp eq ptr %10, null
  br i1 %11, label %12, label %13

12:                                               ; preds = %1
  store i32 -1, ptr %2, align 4
  store i32 1, ptr %7, align 4
  br label %90

13:                                               ; preds = %1
  %14 = load ptr, ptr %3, align 8, !tbaa !3
  %15 = call i32 @strncmp(ptr noundef %14, ptr noundef @.str.14, i64 noundef 4) #8
  %16 = icmp eq i32 %15, 0
  br i1 %16, label %17, label %20

17:                                               ; preds = %13
  %18 = load ptr, ptr %3, align 8, !tbaa !3
  %19 = getelementptr inbounds nuw i8, ptr %18, i64 4
  store ptr %19, ptr %3, align 8, !tbaa !3
  br label %20

20:                                               ; preds = %17, %13
  %21 = load ptr, ptr %4, align 8, !tbaa !3
  %22 = load ptr, ptr %3, align 8, !tbaa !3
  %23 = ptrtoint ptr %21 to i64
  %24 = ptrtoint ptr %22 to i64
  %25 = sub i64 %23, %24
  %26 = trunc i64 %25 to i32
  store i32 %26, ptr %5, align 4, !tbaa !12
  %27 = load i32, ptr %5, align 4, !tbaa !12
  %28 = icmp sgt i32 %27, 5
  br i1 %28, label %29, label %30

29:                                               ; preds = %20
  store i32 -1, ptr %2, align 4
  store i32 1, ptr %7, align 4
  br label %90

30:                                               ; preds = %20
  %31 = getelementptr inbounds [6 x i8], ptr %6, i64 0, i64 0
  %32 = load ptr, ptr %3, align 8, !tbaa !3
  %33 = load i32, ptr %5, align 4, !tbaa !12
  %34 = add nsw i32 %33, 1
  %35 = sext i32 %34 to i64
  %36 = call i64 @OPENSSL_strlcpy(ptr noundef %31, ptr noundef %32, i64 noundef %35)
  %37 = getelementptr inbounds [6 x i8], ptr %6, i64 0, i64 0
  %38 = call i32 @strcmp(ptr noundef %37, ptr noundef @.str.1) #8
  %39 = icmp eq i32 %38, 0
  br i1 %39, label %40, label %41

40:                                               ; preds = %30
  br label %88

41:                                               ; preds = %30
  %42 = getelementptr inbounds [6 x i8], ptr %6, i64 0, i64 0
  %43 = call i32 @strcmp(ptr noundef %42, ptr noundef @.str.2) #8
  %44 = icmp eq i32 %43, 0
  br i1 %44, label %45, label %46

45:                                               ; preds = %41
  br label %86

46:                                               ; preds = %41
  %47 = getelementptr inbounds [6 x i8], ptr %6, i64 0, i64 0
  %48 = call i32 @strcmp(ptr noundef %47, ptr noundef @.str.3) #8
  %49 = icmp eq i32 %48, 0
  br i1 %49, label %50, label %51

50:                                               ; preds = %46
  br label %84

51:                                               ; preds = %46
  %52 = getelementptr inbounds [6 x i8], ptr %6, i64 0, i64 0
  %53 = call i32 @strcmp(ptr noundef %52, ptr noundef @.str.15) #8
  %54 = icmp eq i32 %53, 0
  br i1 %54, label %55, label %56

55:                                               ; preds = %51
  br label %82

56:                                               ; preds = %51
  %57 = getelementptr inbounds [6 x i8], ptr %6, i64 0, i64 0
  %58 = call i32 @strcmp(ptr noundef %57, ptr noundef @.str.16) #8
  %59 = icmp eq i32 %58, 0
  br i1 %59, label %60, label %61

60:                                               ; preds = %56
  br label %80

61:                                               ; preds = %56
  %62 = getelementptr inbounds [6 x i8], ptr %6, i64 0, i64 0
  %63 = call i32 @strcmp(ptr noundef %62, ptr noundef @.str.6) #8
  %64 = icmp eq i32 %63, 0
  br i1 %64, label %65, label %66

65:                                               ; preds = %61
  br label %78

66:                                               ; preds = %61
  %67 = getelementptr inbounds [6 x i8], ptr %6, i64 0, i64 0
  %68 = call i32 @strcmp(ptr noundef %67, ptr noundef @.str.17) #8
  %69 = icmp eq i32 %68, 0
  br i1 %69, label %70, label %71

70:                                               ; preds = %66
  br label %76

71:                                               ; preds = %66
  %72 = getelementptr inbounds [6 x i8], ptr %6, i64 0, i64 0
  %73 = call i32 @strcmp(ptr noundef %72, ptr noundef @.str.8) #8
  %74 = icmp eq i32 %73, 0
  %75 = select i1 %74, i32 7, i32 -1
  br label %76

76:                                               ; preds = %71, %70
  %77 = phi i32 [ 6, %70 ], [ %75, %71 ]
  br label %78

78:                                               ; preds = %76, %65
  %79 = phi i32 [ 5, %65 ], [ %77, %76 ]
  br label %80

80:                                               ; preds = %78, %60
  %81 = phi i32 [ 4, %60 ], [ %79, %78 ]
  br label %82

82:                                               ; preds = %80, %55
  %83 = phi i32 [ 3, %55 ], [ %81, %80 ]
  br label %84

84:                                               ; preds = %82, %50
  %85 = phi i32 [ 2, %50 ], [ %83, %82 ]
  br label %86

86:                                               ; preds = %84, %45
  %87 = phi i32 [ 1, %45 ], [ %85, %84 ]
  br label %88

88:                                               ; preds = %86, %40
  %89 = phi i32 [ 0, %40 ], [ %87, %86 ]
  store i32 %89, ptr %2, align 4
  store i32 1, ptr %7, align 4
  br label %90

90:                                               ; preds = %88, %29, %12
  call void @llvm.lifetime.end.p0(i64 6, ptr %6) #7
  call void @llvm.lifetime.end.p0(i64 4, ptr %5) #7
  call void @llvm.lifetime.end.p0(i64 8, ptr %4) #7
  %91 = load i32, ptr %2, align 4
  ret i32 %91
}