; Function Attrs: nounwind uwtable
define internal fastcc range(i32 -1, 8) i32 @parse_level(ptr noundef %0) unnamed_addr #1 {
  %2 = alloca [6 x i8], align 1
  %3 = tail call ptr @strchr(ptr noundef nonnull dereferenceable(1) %0, i32 noundef 58) #8
  call void @llvm.lifetime.start.p0(i64 6, ptr nonnull %2) #7
  %4 = icmp eq ptr %3, null
  br i1 %4, label %33, label %5

5:                                                ; preds = %1
  %6 = tail call i32 @strncmp(ptr noundef nonnull dereferenceable(1) %0, ptr noundef nonnull dereferenceable(5) @.str.14, i64 noundef 4) #8
  %7 = icmp eq i32 %6, 0
  %spec.select.idx = select i1 %7, i64 4, i64 0
  %spec.select = getelementptr inbounds nuw i8, ptr %0, i64 %spec.select.idx
  %8 = ptrtoint ptr %3 to i64
  %9 = ptrtoint ptr %spec.select to i64
  %10 = sub i64 %8, %9
  %11 = trunc i64 %10 to i32
  %12 = icmp sgt i32 %11, 5
  br i1 %12, label %33, label %13

13:                                               ; preds = %5
  %14 = shl i64 %10, 32
  %sext = add i64 %14, 4294967296
  %15 = ashr exact i64 %sext, 32
  %16 = call i64 @OPENSSL_strlcpy(ptr noundef nonnull %2, ptr noundef nonnull %spec.select, i64 noundef %15) #7
  %bcmp = call i32 @bcmp(ptr noundef nonnull dereferenceable(6) %2, ptr noundef nonnull dereferenceable(6) @.str.1, i64 6)
  %17 = icmp eq i32 %bcmp, 0
  br i1 %17, label %33, label %18

18:                                               ; preds = %13
  %bcmp12 = call i32 @bcmp(ptr noundef nonnull dereferenceable(6) %2, ptr noundef nonnull dereferenceable(6) @.str.2, i64 6)
  %19 = icmp eq i32 %bcmp12, 0
  br i1 %19, label %33, label %20

20:                                               ; preds = %18
  %bcmp13 = call i32 @bcmp(ptr noundef nonnull dereferenceable(5) %2, ptr noundef nonnull dereferenceable(5) @.str.3, i64 5)
  %21 = icmp eq i32 %bcmp13, 0
  br i1 %21, label %33, label %22

22:                                               ; preds = %20
  %bcmp14 = call i32 @bcmp(ptr noundef nonnull dereferenceable(6) %2, ptr noundef nonnull dereferenceable(6) @.str.15, i64 6)
  %23 = icmp eq i32 %bcmp14, 0
  br i1 %23, label %33, label %24

24:                                               ; preds = %22
  %bcmp15 = call i32 @bcmp(ptr noundef nonnull dereferenceable(5) %2, ptr noundef nonnull dereferenceable(5) @.str.16, i64 5)
  %25 = icmp eq i32 %bcmp15, 0
  br i1 %25, label %33, label %26

26:                                               ; preds = %24
  %bcmp16 = call i32 @bcmp(ptr noundef nonnull dereferenceable(5) %2, ptr noundef nonnull dereferenceable(5) @.str.6, i64 5)
  %27 = icmp eq i32 %bcmp16, 0
  br i1 %27, label %33, label %28

28:                                               ; preds = %26
  %bcmp17 = call i32 @bcmp(ptr noundef nonnull dereferenceable(5) %2, ptr noundef nonnull dereferenceable(5) @.str.17, i64 5)
  %29 = icmp eq i32 %bcmp17, 0
  br i1 %29, label %33, label %30

30:                                               ; preds = %28
  %bcmp18 = call i32 @bcmp(ptr noundef nonnull dereferenceable(6) %2, ptr noundef nonnull dereferenceable(6) @.str.8, i64 6)
  %31 = icmp eq i32 %bcmp18, 0
  %32 = select i1 %31, i32 7, i32 -1
  br label %33

33:                                               ; preds = %13, %20, %24, %30, %28, %26, %22, %18, %5, %1
  %.0 = phi i32 [ -1, %1 ], [ -1, %5 ], [ 0, %13 ], [ 1, %18 ], [ 2, %20 ], [ 3, %22 ], [ 4, %24 ], [ 5, %26 ], [ %32, %30 ], [ 6, %28 ]
  call void @llvm.lifetime.end.p0(i64 6, ptr nonnull %2) #7
  ret i32 %.0
}